target datalayout = "e-m:e-p270:32:32-p271:32:32-p272:64:64-i64:64-f80:128-n8:16:32:64-S128"
target triple = "x86_64-pc-linux-gnu"

%struct.stu = type { i32, i32, i32, i32 }

@.str = private unnamed_addr constant [3 x i8] c"%d\00", align 1
@.str.1 = private unnamed_addr constant [7 x i8] c"%d%d%d\00", align 1
@.str.2 = private unnamed_addr constant [4 x i8] c"%d \00", align 1
@.str.3 = private unnamed_addr constant [4 x i8] c"%d\0A\00", align 1

; Function Attrs: noinline nounwind uwtable
define dso_local i32 @main() #0 {
  %1 = alloca i32, align 4
  %2 = alloca i32, align 4
  %3 = alloca i32, align 4
  %4 = alloca i32, align 4
  %5 = alloca i32, align 4
  %6 = alloca i32, align 4
  %7 = alloca i32, align 4
  %8 = alloca [100000 x %struct.stu], align 16
  %9 = alloca %struct.stu, align 4
  store i32 0, i32* %1, align 4
  %10 = bitcast [100000 x %struct.stu]* %8 to i8*
  call void @llvm.memset.p0i8.i64(i8* align 16 %10, i8 0, i64 1600000, i1 false)
  %11 = call i32 (i8*, ...) @__isoc99_scanf(i8* getelementptr inbounds ([3 x i8], [3 x i8]* @.str, i64 0, i64 0), i32* %6)
  store i32 0, i32* %2, align 4
  br label %12

12:                                               ; preds = %46, %0
  %13 = load i32, i32* %2, align 4
  %14 = load i32, i32* %6, align 4
  %15 = sub nsw i32 %14, 1
  %16 = icmp sle i32 %13, %15
  br i1 %16, label %17, label %49

17:                                               ; preds = %12
  %18 = load i32, i32* %2, align 4
  %19 = sext i32 %18 to i64
  %20 = getelementptr inbounds [100000 x %struct.stu], [100000 x %struct.stu]* %8, i64 0, i64 %19
  %21 = getelementptr inbounds %struct.stu, %struct.stu* %20, i32 0, i32 0
  %22 = load i32, i32* %2, align 4
  %23 = sext i32 %22 to i64
  %24 = getelementptr inbounds [100000 x %struct.stu], [100000 x %struct.stu]* %8, i64 0, i64 %23
  %25 = getelementptr inbounds %struct.stu, %struct.stu* %24, i32 0, i32 1
  %26 = load i32, i32* %2, align 4
  %27 = sext i32 %26 to i64
  %28 = getelementptr inbounds [100000 x %struct.stu], [100000 x %struct.stu]* %8, i64 0, i64 %27
  %29 = getelementptr inbounds %struct.stu, %struct.stu* %28, i32 0, i32 2
  %30 = call i32 (i8*, ...) @__isoc99_scanf(i8* getelementptr inbounds ([7 x i8], [7 x i8]* @.str.1, i64 0, i64 0), i32* %21, i32* %25, i32* %29)
  %31 = load i32, i32* %2, align 4
  %32 = sext i32 %31 to i64
  %33 = getelementptr inbounds [100000 x %struct.stu], [100000 x %struct.stu]* %8, i64 0, i64 %32
  %34 = getelementptr inbounds %struct.stu, %struct.stu* %33, i32 0, i32 1
  %35 = load i32, i32* %34, align 4
  %36 = load i32, i32* %2, align 4
  %37 = sext i32 %36 to i64
  %38 = getelementptr inbounds [100000 x %struct.stu], [100000 x %struct.stu]* %8, i64 0, i64 %37
  %39 = getelementptr inbounds %struct.stu, %struct.stu* %38, i32 0, i32 2
  %40 = load i32, i32* %39, align 8
  %41 = add nsw i32 %35, %40
  %42 = load i32, i32* %2, align 4
  %43 = sext i32 %42 to i64
  %44 = getelementptr inbounds [100000 x %struct.stu], [100000 x %struct.stu]* %8, i64 0, i64 %43
  %45 = getelementptr inbounds %struct.stu, %struct.stu* %44, i32 0, i32 3
  store i32 %41, i32* %45, align 4
  br label %46

46:                                               ; preds = %17
  %47 = load i32, i32* %2, align 4
  %48 = add nsw i32 %47, 1
  store i32 %48, i32* %2, align 4
  br label %12

49:                                               ; preds = %12
  store i32 0, i32* %7, align 4
  store i32 0, i32* %2, align 4
  br label %50

50:                                               ; preds = %71, %49
  %51 = load i32, i32* %2, align 4
  %52 = load i32, i32* %6, align 4
  %53 = sub nsw i32 %52, 1
  %54 = icmp sle i32 %51, %53
  br i1 %54, label %55, label %74

55:                                               ; preds = %50
  %56 = load i32, i32* %2, align 4
  %57 = sext i32 %56 to i64
  %58 = getelementptr inbounds [100000 x %struct.stu], [100000 x %struct.stu]* %8, i64 0, i64 %57
  %59 = getelementptr inbounds %struct.stu, %struct.stu* %58, i32 0, i32 3
  %60 = load i32, i32* %59, align 4
  %61 = load i32, i32* %7, align 4
  %62 = icmp sgt i32 %60, %61
  br i1 %62, label %63, label %70

63:                                               ; preds = %55
  %64 = load i32, i32* %2, align 4
  %65 = sext i32 %64 to i64
  %66 = getelementptr inbounds [100000 x %struct.stu], [100000 x %struct.stu]* %8, i64 0, i64 %65
  %67 = getelementptr inbounds %struct.stu, %struct.stu* %66, i32 0, i32 3
  %68 = load i32, i32* %67, align 4
  store i32 %68, i32* %7, align 4
  %69 = load i32, i32* %2, align 4
  store i32 %69, i32* %3, align 4
  br label %70

70:                                               ; preds = %63, %55
  br label %71

71:                                               ; preds = %70
  %72 = load i32, i32* %2, align 4
  %73 = add nsw i32 %72, 1
  store i32 %73, i32* %2, align 4
  br label %50

74:                                               ; preds = %50
  %75 = load i32, i32* %3, align 4
  %76 = sext i32 %75 to i64
  %77 = getelementptr inbounds [100000 x %struct.stu], [100000 x %struct.stu]* %8, i64 0, i64 %76
  %78 = getelementptr inbounds %struct.stu, %struct.stu* %77, i32 0, i32 0
  %79 = load i32, i32* %78, align 16
  %80 = call i32 (i8*, ...) @printf(i8* getelementptr inbounds ([4 x i8], [4 x i8]* @.str.2, i64 0, i64 0), i32 %79)
  %81 = load i32, i32* %3, align 4
  %82 = sext i32 %81 to i64
  %83 = getelementptr inbounds [100000 x %struct.stu], [100000 x %struct.stu]* %8, i64 0, i64 %82
  %84 = getelementptr inbounds %struct.stu, %struct.stu* %83, i32 0, i32 3
  %85 = load i32, i32* %84, align 4
  %86 = call i32 (i8*, ...) @printf(i8* getelementptr inbounds ([4 x i8], [4 x i8]* @.str.3, i64 0, i64 0), i32 %85)
  store i32 0, i32* %7, align 4
  store i32 0, i32* %2, align 4
  br label %87

87:                                               ; preds = %113, %74
  %88 = load i32, i32* %2, align 4
  %89 = load i32, i32* %6, align 4
  %90 = sub nsw i32 %89, 1
  %91 = icmp sle i32 %88, %90
  br i1 %91, label %92, label %116

92:                                               ; preds = %87
  %93 = load i32, i32* %2, align 4
  %94 = load i32, i32* %3, align 4
  %95 = icmp eq i32 %93, %94
  br i1 %95, label %96, label %97

96:                                               ; preds = %92
  br label %113

97:                                               ; preds = %92
  %98 = load i32, i32* %2, align 4
  %99 = sext i32 %98 to i64
  %100 = getelementptr inbounds [100000 x %struct.stu], [100000 x %struct.stu]* %8, i64 0, i64 %99
  %101 = getelementptr inbounds %struct.stu, %struct.stu* %100, i32 0, i32 3
  %102 = load i32, i32* %101, align 4
  %103 = load i32, i32* %7, align 4
  %104 = icmp sgt i32 %102, %103
  br i1 %104, label %105, label %112

105:                                              ; preds = %97
  %106 = load i32, i32* %2, align 4
  %107 = sext i32 %106 to i64
  %108 = getelementptr inbounds [100000 x %struct.stu], [100000 x %struct.stu]* %8, i64 0, i64 %107
  %109 = getelementptr inbounds %struct.stu, %struct.stu* %108, i32 0, i32 3
  %110 = load i32, i32* %109, align 4
  store i32 %110, i32* %7, align 4
  %111 = load i32, i32* %2, align 4
  store i32 %111, i32* %4, align 4
  br label %112

112:                                              ; preds = %105, %97
  br label %113

113:                                              ; preds = %112, %96
  %114 = load i32, i32* %2, align 4
  %115 = add nsw i32 %114, 1
  store i32 %115, i32* %2, align 4
  br label %87

116:                                              ; preds = %87
  %117 = load i32, i32* %4, align 4
  %118 = sext i32 %117 to i64
  %119 = getelementptr inbounds [100000 x %struct.stu], [100000 x %struct.stu]* %8, i64 0, i64 %118
  %120 = getelementptr inbounds %struct.stu, %struct.stu* %119, i32 0, i32 0
  %121 = load i32, i32* %120, align 16
  %122 = call i32 (i8*, ...) @printf(i8* getelementptr inbounds ([4 x i8], [4 x i8]* @.str.2, i64 0, i64 0), i32 %121)
  %123 = load i32, i32* %4, align 4
  %124 = sext i32 %123 to i64
  %125 = getelementptr inbounds [100000 x %struct.stu], [100000 x %struct.stu]* %8, i64 0, i64 %124
  %126 = getelementptr inbounds %struct.stu, %struct.stu* %125, i32 0, i32 3
  %127 = load i32, i32* %126, align 4
  %128 = call i32 (i8*, ...) @printf(i8* getelementptr inbounds ([4 x i8], [4 x i8]* @.str.3, i64 0, i64 0), i32 %127)
  store i32 0, i32* %7, align 4
  store i32 0, i32* %7, align 4
  store i32 0, i32* %2, align 4
  br label %129

129:                                              ; preds = %159, %116
  %130 = load i32, i32* %2, align 4
  %131 = load i32, i32* %6, align 4
  %132 = sub nsw i32 %131, 1
  %133 = icmp sle i32 %130, %132
  br i1 %133, label %134, label %162

134:                                              ; preds = %129
  %135 = load i32, i32* %2, align 4
  %136 = load i32, i32* %3, align 4
  %137 = icmp eq i32 %135, %136
  br i1 %137, label %142, label %138

138:                                              ; preds = %134
  %139 = load i32, i32* %2, align 4
  %140 = load i32, i32* %4, align 4
  %141 = icmp eq i32 %139, %140
  br i1 %141, label %142, label %143

142:                                              ; preds = %138, %134
  br label %159

143:                                              ; preds = %138
  %144 = load i32, i32* %2, align 4
  %145 = sext i32 %144 to i64
  %146 = getelementptr inbounds [100000 x %struct.stu], [100000 x %struct.stu]* %8, i64 0, i64 %145
  %147 = getelementptr inbounds %struct.stu, %struct.stu* %146, i32 0, i32 3
  %148 = load i32, i32* %147, align 4
  %149 = load i32, i32* %7, align 4
  %150 = icmp sgt i32 %148, %149
  br i1 %150, label %151, label %158

151:                                              ; preds = %143
  %152 = load i32, i32* %2, align 4
  %153 = sext i32 %152 to i64
  %154 = getelementptr inbounds [100000 x %struct.stu], [100000 x %struct.stu]* %8, i64 0, i64 %153
  %155 = getelementptr inbounds %struct.stu, %struct.stu* %154, i32 0, i32 3
  %156 = load i32, i32* %155, align 4
  store i32 %156, i32* %7, align 4
  %157 = load i32, i32* %2, align 4
  store i32 %157, i32* %5, align 4
  br label %158

158:                                              ; preds = %151, %143
  br label %159

159:                                              ; preds = %158, %142
  %160 = load i32, i32* %2, align 4
  %161 = add nsw i32 %160, 1
  store i32 %161, i32* %2, align 4
  br label %129

162:                                              ; preds = %129
  %163 = load i32, i32* %5, align 4
  %164 = sext i32 %163 to i64
  %165 = getelementptr inbounds [100000 x %struct.stu], [100000 x %struct.stu]* %8, i64 0, i64 %164
  %166 = getelementptr inbounds %struct.stu, %struct.stu* %165, i32 0, i32 0
  %167 = load i32, i32* %166, align 16
  %168 = call i32 (i8*, ...) @printf(i8* getelementptr inbounds ([4 x i8], [4 x i8]* @.str.2, i64 0, i64 0), i32 %167)
  %169 = load i32, i32* %5, align 4
  %170 = sext i32 %169 to i64
  %171 = getelementptr inbounds [100000 x %struct.stu], [100000 x %struct.stu]* %8, i64 0, i64 %170
  %172 = getelementptr inbounds %struct.stu, %struct.stu* %171, i32 0, i32 3
  %173 = load i32, i32* %172, align 4
  %174 = call i32 (i8*, ...) @printf(i8* getelementptr inbounds ([4 x i8], [4 x i8]* @.str.3, i64 0, i64 0), i32 %173)
  ret i32 0
}